	.file	"llms.c"
	.text
.Ltext0:
	.globl	main
	.type	main, @function
main:
.LFB2:
	.file 1 "llms.c"
	.loc 1 19 0
	.cfi_startproc
	pushq	%rbp
	.cfi_def_cfa_offset 16
	.cfi_offset 6, -16
	movq	%rsp, %rbp
	.cfi_def_cfa_register 6
	subq	$48, %rsp
	.loc 1 19 0
	movq	%fs:40, %rax
	movq	%rax, -8(%rbp)
	xorl	%eax, %eax
	.loc 1 22 0
	movl	$12, -32(%rbp)
	.loc 1 23 0
	movq	$0, -24(%rbp)
	.loc 1 25 0
	call	build_list
	movq	%rax, -40(%rbp)
	.loc 1 26 0
	movq	-40(%rbp), %rax
	movq	%rax, %rdi
	call	merge_sort
	movq	%rax, -40(%rbp)
	.loc 1 27 0
	movq	-40(%rbp), %rax
	movq	%rax, %rdi
	call	print_list
	.loc 1 28 0
	leaq	-32(%rbp), %rax
	movq	%rax, %rdi
	call	print_list
	.loc 1 29 0
	movl	$0, %eax
	.loc 1 30 0
	movq	-8(%rbp), %rdx
	xorq	%fs:40, %rdx
	je	.L3
	call	__stack_chk_fail
.L3:
	leave
	.cfi_def_cfa 7, 8
	ret
	.cfi_endproc
.LFE2:
	.size	main, .-main
	.globl	split
	.type	split, @function
split:
.LFB3:
	.loc 1 33 0
	.cfi_startproc
	pushq	%rbp
	.cfi_def_cfa_offset 16
	.cfi_offset 6, -16
	movq	%rsp, %rbp
	.cfi_def_cfa_register 6
	movq	%rdi, -40(%rbp)
	.loc 1 37 0
	movl	$0, -20(%rbp)
	.loc 1 38 0
	movq	-40(%rbp), %rax
	movq	%rax, -16(%rbp)
	.loc 1 39 0
	jmp	.L5
.L6:
	.loc 1 40 0
	addl	$1, -20(%rbp)
	.loc 1 41 0
	movq	-16(%rbp), %rax
	movq	8(%rax), %rax
	movq	%rax, -16(%rbp)
.L5:
	.loc 1 39 0
	cmpq	$0, -16(%rbp)
	jne	.L6
	.loc 1 44 0
	movq	-40(%rbp), %rax
	movq	%rax, -16(%rbp)
	.loc 1 45 0
	movl	$2, -24(%rbp)
	jmp	.L7
.L8:
	.loc 1 46 0 discriminator 3
	movq	-16(%rbp), %rax
	movq	8(%rax), %rax
	movq	%rax, -16(%rbp)
	.loc 1 45 0 discriminator 3
	addl	$2, -24(%rbp)
.L7:
	.loc 1 45 0 is_stmt 0 discriminator 1
	movl	-24(%rbp), %eax
	cmpl	-20(%rbp), %eax
	jl	.L8
	.loc 1 49 0 is_stmt 1
	movq	-16(%rbp), %rax
	movq	8(%rax), %rax
	movq	%rax, -8(%rbp)
	.loc 1 50 0
	movq	-16(%rbp), %rax
	movq	$0, 8(%rax)
	.loc 1 52 0
	movq	-8(%rbp), %rax
	.loc 1 53 0
	popq	%rbp
	.cfi_def_cfa 7, 8
	ret
	.cfi_endproc
.LFE3:
	.size	split, .-split
	.globl	merge
	.type	merge, @function
merge:
.LFB4:
	.loc 1 56 0
	.cfi_startproc
	pushq	%rbp
	.cfi_def_cfa_offset 16
	.cfi_offset 6, -16
	movq	%rsp, %rbp
	.cfi_def_cfa_register 6
	movq	%rdi, -24(%rbp)
	movq	%rsi, -32(%rbp)
	.loc 1 59 0
	cmpq	$0, -24(%rbp)
	jne	.L11
	.loc 1 59 0 is_stmt 0 discriminator 1
	movq	-32(%rbp), %rax
	jmp	.L12
.L11:
	.loc 1 60 0 is_stmt 1
	cmpq	$0, -32(%rbp)
	jne	.L13
	.loc 1 60 0 is_stmt 0 discriminator 1
	movq	-24(%rbp), %rax
	jmp	.L12
.L13:
	.loc 1 62 0 is_stmt 1
	movq	-24(%rbp), %rax
	movl	(%rax), %edx
	movq	-32(%rbp), %rax
	movl	(%rax), %eax
	cmpl	%eax, %edx
	jge	.L14
	.loc 1 63 0
	movq	-24(%rbp), %rax
	movq	%rax, -8(%rbp)
	movq	-8(%rbp), %rax
	movq	%rax, -16(%rbp)
	.loc 1 64 0
	movq	-24(%rbp), %rax
	movq	8(%rax), %rax
	movq	%rax, -24(%rbp)
	jmp	.L15
.L14:
	.loc 1 66 0
	movq	-32(%rbp), %rax
	movq	%rax, -8(%rbp)
	movq	-8(%rbp), %rax
	movq	%rax, -16(%rbp)
	.loc 1 67 0
	movq	-32(%rbp), %rax
	movq	8(%rax), %rax
	movq	%rax, -32(%rbp)
.L15:
	.loc 1 70 0
	jmp	.L16
.L20:
	.loc 1 71 0
	movq	-24(%rbp), %rax
	movl	(%rax), %edx
	movq	-32(%rbp), %rax
	movl	(%rax), %eax
	cmpl	%eax, %edx
	jge	.L17
	.loc 1 72 0
	movq	-8(%rbp), %rax
	movq	-24(%rbp), %rdx
	movq	%rdx, 8(%rax)
	.loc 1 73 0
	movq	-24(%rbp), %rax
	movq	8(%rax), %rax
	movq	%rax, -24(%rbp)
	jmp	.L18
.L17:
	.loc 1 75 0
	movq	-8(%rbp), %rax
	movq	-32(%rbp), %rdx
	movq	%rdx, 8(%rax)
	.loc 1 76 0
	movq	-32(%rbp), %rax
	movq	8(%rax), %rax
	movq	%rax, -32(%rbp)
.L18:
	.loc 1 78 0
	movq	-8(%rbp), %rax
	movq	8(%rax), %rax
	movq	%rax, -8(%rbp)
.L16:
	.loc 1 70 0
	cmpq	$0, -24(%rbp)
	je	.L19
	.loc 1 70 0 is_stmt 0 discriminator 1
	cmpq	$0, -32(%rbp)
	jne	.L20
.L19:
	.loc 1 81 0 is_stmt 1
	cmpq	$0, -24(%rbp)
	je	.L21
	.loc 1 81 0 is_stmt 0 discriminator 1
	movq	-8(%rbp), %rax
	movq	-24(%rbp), %rdx
	movq	%rdx, 8(%rax)
	jmp	.L22
.L21:
	.loc 1 82 0 is_stmt 1
	movq	-8(%rbp), %rax
	movq	-32(%rbp), %rdx
	movq	%rdx, 8(%rax)
.L22:
	.loc 1 84 0
	movq	-16(%rbp), %rax
.L12:
	.loc 1 85 0
	popq	%rbp
	.cfi_def_cfa 7, 8
	ret
	.cfi_endproc
.LFE4:
	.size	merge, .-merge
	.globl	merge_sort
	.type	merge_sort, @function
merge_sort:
.LFB5:
	.loc 1 88 0
	.cfi_startproc
	pushq	%rbp
	.cfi_def_cfa_offset 16
	.cfi_offset 6, -16
	movq	%rsp, %rbp
	.cfi_def_cfa_register 6
	subq	$32, %rsp
	movq	%rdi, -24(%rbp)
	.loc 1 91 0
	cmpq	$0, -24(%rbp)
	je	.L24
	.loc 1 91 0 is_stmt 0 discriminator 1
	movq	-24(%rbp), %rax
	movq	8(%rax), %rax
	testq	%rax, %rax
	je	.L24
	.loc 1 92 0 is_stmt 1
	movq	-24(%rbp), %rax
	movq	%rax, %rdi
	call	split
	movq	%rax, -8(%rbp)
	.loc 1 93 0
	movq	-24(%rbp), %rax
	movq	%rax, %rdi
	call	merge_sort
	movq	%rax, -24(%rbp)
	.loc 1 94 0
	movq	-8(%rbp), %rax
	movq	%rax, %rdi
	call	merge_sort
	movq	%rax, -8(%rbp)
	.loc 1 95 0
	movq	-8(%rbp), %rdx
	movq	-24(%rbp), %rax
	movq	%rdx, %rsi
	movq	%rax, %rdi
	call	merge
	jmp	.L25
.L24:
	.loc 1 97 0
	movq	-24(%rbp), %rax
.L25:
	.loc 1 99 0
	leave
	.cfi_def_cfa 7, 8
	ret
	.cfi_endproc
.LFE5:
	.size	merge_sort, .-merge_sort
	.section	.rodata
.LC0:
	.string	"%d"
	.text
	.globl	build_list
	.type	build_list, @function
build_list:
.LFB6:
	.loc 1 102 0
	.cfi_startproc
	pushq	%rbp
	.cfi_def_cfa_offset 16
	.cfi_offset 6, -16
	movq	%rsp, %rbp
	.cfi_def_cfa_register 6
	subq	$32, %rsp
	.loc 1 102 0
	movq	%fs:40, %rax
	movq	%rax, -8(%rbp)
	xorl	%eax, %eax
	.loc 1 106 0
	movq	$0, -24(%rbp)
	.loc 1 108 0
	jmp	.L27
.L28:
	.loc 1 109 0
	movl	$16, %esi
	movl	$1, %edi
	call	calloc
	movq	%rax, -16(%rbp)
	.loc 1 110 0
	movl	-28(%rbp), %edx
	movq	-16(%rbp), %rax
	movl	%edx, (%rax)
	.loc 1 111 0
	movq	-16(%rbp), %rax
	movq	-24(%rbp), %rdx
	movq	%rdx, 8(%rax)
	.loc 1 112 0
	movq	-16(%rbp), %rax
	movq	%rax, -24(%rbp)
.L27:
	.loc 1 108 0
	leaq	-28(%rbp), %rax
	movq	%rax, %rsi
	movl	$.LC0, %edi
	movl	$0, %eax
	call	__isoc99_scanf
	cmpl	$1, %eax
	je	.L28
	.loc 1 114 0
	movq	-24(%rbp), %rax
	.loc 1 115 0
	movq	-8(%rbp), %rcx
	xorq	%fs:40, %rcx
	je	.L30
	call	__stack_chk_fail
.L30:
	leave
	.cfi_def_cfa 7, 8
	ret
	.cfi_endproc
.LFE6:
	.size	build_list, .-build_list
	.section	.rodata
.LC1:
	.string	"%d\n"
	.text
	.globl	print_list
	.type	print_list, @function
print_list:
.LFB7:
	.loc 1 118 0
	.cfi_startproc
	pushq	%rbp
	.cfi_def_cfa_offset 16
	.cfi_offset 6, -16
	movq	%rsp, %rbp
	.cfi_def_cfa_register 6
	subq	$16, %rsp
	movq	%rdi, -8(%rbp)
	.loc 1 119 0
	jmp	.L32
.L33:
	.loc 1 120 0
	movq	-8(%rbp), %rax
	movl	(%rax), %eax
	movl	%eax, %esi
	movl	$.LC1, %edi
	movl	$0, %eax
	call	printf
	.loc 1 121 0
	movq	-8(%rbp), %rax
	movq	8(%rax), %rax
	movq	%rax, -8(%rbp)
.L32:
	.loc 1 119 0
	cmpq	$0, -8(%rbp)
	jne	.L33
	.loc 1 123 0
	leave
	.cfi_def_cfa 7, 8
	ret
	.cfi_endproc
.LFE7:
	.size	print_list, .-print_list
.Letext0:
	.section	.note.GNU-stack,"",@progbits
